; Function Attrs: mustprogress uwtable
define void @_ZNK6casadi9Diagsplit11get_diagcatERKSt6vectorINS_2MXESaIS2_EE(ptr dead_on_unwind noalias writable sret(%"class.casadi::MX") align 8 %0, ptr noundef nonnull align 8 dereferenceable(112) %1, ptr noundef nonnull align 8 dereferenceable(24) %2) unnamed_addr #3 align 2 {
  %4 = getelementptr inbounds i8, ptr %2, i64 8
  %5 = load ptr, ptr %4, align 8
  %6 = load ptr, ptr %2, align 8
  %7 = ptrtoint ptr %5 to i64
  %8 = ptrtoint ptr %6 to i64
  %9 = sub i64 %7, %8
  %10 = ashr exact i64 %9, 3
  %11 = load ptr, ptr %1, align 8
  %12 = getelementptr inbounds i8, ptr %11, i64 336
  %13 = load ptr, ptr %12, align 8
  %14 = tail call noundef i64 %13(ptr noundef nonnull align 8 dereferenceable(112) %1)
  %.not = icmp eq i64 %10, %14
  br i1 %.not, label %.preheader, label %17

.preheader:                                       ; preds = %3
  %15 = load ptr, ptr %4, align 8
  %16 = load ptr, ptr %2, align 8
  %.not16 = icmp eq ptr %15, %16
  br i1 %.not16, label %._crit_edge, label %.lr.ph

17:                                               ; preds = %3
  tail call void @_ZNK6casadi6MXNode11get_diagcatERKSt6vectorINS_2MXESaIS2_EE(ptr dead_on_unwind writable sret(%"class.casadi::MX") align 8 %0, ptr noundef nonnull align 8 dereferenceable(64) %1, ptr noundef nonnull align 8 dereferenceable(24) %2)
  br label %60

18:                                               ; preds = %_ZNK6casadi6MXNode3depEx.exit
  %19 = add nuw nsw i64 %.015, 1
  %20 = load ptr, ptr %4, align 8
  %21 = load ptr, ptr %2, align 8
  %22 = ptrtoint ptr %20 to i64
  %23 = ptrtoint ptr %21 to i64
  %24 = sub i64 %22, %23
  %25 = ashr exact i64 %24, 3
  %26 = icmp ult i64 %19, %25
  br i1 %26, label %.lr.ph, label %._crit_edge, !llvm.loop !43

.lr.ph:                                           ; preds = %.preheader, %18
  %27 = phi ptr [ %21, %18 ], [ %16, %.preheader ]
  %.015 = phi i64 [ %19, %18 ], [ 0, %.preheader ]
  %28 = getelementptr inbounds %"class.casadi::MX", ptr %27, i64 %.015
  %29 = tail call noundef ptr @_ZNK6casadi2MXptEv(ptr noundef nonnull align 8 dereferenceable(8) %28)
  %30 = load ptr, ptr %29, align 8
  %31 = getelementptr inbounds i8, ptr %30, i64 264
  %32 = load ptr, ptr %31, align 8
  %33 = tail call noundef zeroext i1 %32(ptr noundef nonnull align 8 dereferenceable(64) %29)
  br i1 %33, label %34, label %54

34:                                               ; preds = %.lr.ph
  %35 = load ptr, ptr %2, align 8
  %36 = getelementptr inbounds %"class.casadi::MX", ptr %35, i64 %.015
  %37 = tail call noundef ptr @_ZNK6casadi2MXptEv(ptr noundef nonnull align 8 dereferenceable(8) %36)
  %38 = load ptr, ptr %37, align 8
  %39 = getelementptr inbounds i8, ptr %38, i64 280
  %40 = load ptr, ptr %39, align 8
  %41 = tail call noundef i64 %40(ptr noundef nonnull align 8 dereferenceable(64) %37)
  %42 = icmp eq i64 %41, %.015
  br i1 %42, label %43, label %54

43:                                               ; preds = %34
  %44 = load ptr, ptr %2, align 8
  %45 = getelementptr inbounds %"class.casadi::MX", ptr %44, i64 %.015
  %46 = tail call noundef ptr @_ZNK6casadi2MXptEv(ptr noundef nonnull align 8 dereferenceable(8) %45)
  %47 = getelementptr inbounds i8, ptr %46, i64 32
  %48 = getelementptr inbounds i8, ptr %46, i64 40
  %49 = load ptr, ptr %48, align 8
  %50 = load ptr, ptr %47, align 8
  %.not.i.i.i.not = icmp eq ptr %49, %50
  br i1 %.not.i.i.i.not, label %51, label %_ZNK6casadi6MXNode3depEx.exit

51:                                               ; preds = %43
  tail call void (ptr, ...) @_ZSt24__throw_out_of_range_fmtPKcz(ptr noundef nonnull @.str.23, i64 noundef 0, i64 noundef 0) #23
  unreachable

_ZNK6casadi6MXNode3depEx.exit:                    ; preds = %43
  %52 = tail call noundef ptr @_ZNK6casadi2MX3getEv(ptr noundef nonnull align 8 dereferenceable(8) %50)
  %53 = icmp eq ptr %52, %1
  br i1 %53, label %18, label %54

54:                                               ; preds = %_ZNK6casadi6MXNode3depEx.exit, %34, %.lr.ph
  tail call void @_ZNK6casadi6MXNode11get_diagcatERKSt6vectorINS_2MXESaIS2_EE(ptr dead_on_unwind writable sret(%"class.casadi::MX") align 8 %0, ptr noundef nonnull align 8 dereferenceable(64) %1, ptr noundef nonnull align 8 dereferenceable(24) %2)
  br label %60

._crit_edge:                                      ; preds = %18, %.preheader
  %55 = getelementptr inbounds i8, ptr %1, i64 32
  %56 = getelementptr inbounds i8, ptr %1, i64 40
  %57 = load ptr, ptr %56, align 8
  %58 = load ptr, ptr %55, align 8
  %.not.i.i.i13.not = icmp eq ptr %57, %58
  br i1 %.not.i.i.i13.not, label %59, label %_ZNK6casadi6MXNode3depEx.exit14

59:                                               ; preds = %._crit_edge
  tail call void (ptr, ...) @_ZSt24__throw_out_of_range_fmtPKcz(ptr noundef nonnull @.str.23, i64 noundef 0, i64 noundef 0) #23
  unreachable

_ZNK6casadi6MXNode3depEx.exit14:                  ; preds = %._crit_edge
  tail call void @_ZN6casadi12SharedObjectC2ERKS0_(ptr noundef nonnull align 8 dereferenceable(8) %0, ptr noundef nonnull align 8 dereferenceable(8) %58)
  br label %60

60:                                               ; preds = %_ZNK6casadi6MXNode3depEx.exit14, %54, %17
  ret void
}